target datalayout = "e-m:e-p270:32:32-p271:32:32-p272:64:64-i64:64-i128:128-f80:128-n8:16:32:64-S128"
target triple = "x86_64-pc-linux-gnu"

%"struct.cv::utils::trace::details::Region::LocationStaticStorage" = type { ptr, ptr, ptr, i32, i32 }
%"class.cv::utils::trace::details::Region" = type <{ ptr, i32, [4 x i8] }>

@_ZZN2cv2LUEPdmiS0_miE24__cv_trace_location_fn77 = internal constant %"struct.cv::utils::trace::details::Region::LocationStaticStorage" { ptr @_ZZN2cv2LUEPdmiS0_miE30__cv_trace_location_extra_fn77, ptr @.str.2, ptr @.str.1, i32 77, i32 1 }, align 8

; Function Attrs: mustprogress uwtable
define noundef i32 @_ZN2cv2LUEPdmiS0_mi(ptr noundef %0, i64 noundef %1, i32 noundef %2, ptr noundef %3, i64 noundef %4, i32 noundef %5) #0 personality ptr @__gxx_personality_v0 {
  %7 = alloca ptr, align 8
  %8 = alloca i64, align 8
  %9 = alloca i32, align 4
  %10 = alloca ptr, align 8
  %11 = alloca i64, align 8
  %12 = alloca i32, align 4
  %13 = alloca %"class.cv::utils::trace::details::Region", align 8
  %14 = alloca ptr, align 8
  %15 = alloca i32, align 4
  store ptr %0, ptr %7, align 8, !tbaa !17
  store i64 %1, ptr %8, align 8, !tbaa !8
  store i32 %2, ptr %9, align 4, !tbaa !10
  store ptr %3, ptr %10, align 8, !tbaa !17
  store i64 %4, ptr %11, align 8, !tbaa !8
  store i32 %5, ptr %12, align 4, !tbaa !10
  call void @llvm.lifetime.start.p0(i64 16, ptr %13) #14
  call void @_ZN2cv5utils5trace7details6RegionC1ERKNS3_21LocationStaticStorageE(ptr noundef nonnull align 8 dereferenceable(12) %13, ptr noundef nonnull align 8 dereferenceable(32) @_ZZN2cv2LUEPdmiS0_miE24__cv_trace_location_fn77)
  %16 = load ptr, ptr %7, align 8, !tbaa !17
  %17 = load i64, ptr %8, align 8, !tbaa !8
  %18 = load i32, ptr %9, align 4, !tbaa !10
  %19 = load ptr, ptr %10, align 8, !tbaa !17
  %20 = load i64, ptr %11, align 8, !tbaa !8
  %21 = load i32, ptr %12, align 4, !tbaa !10
  %22 = invoke noundef i32 @_ZN2cv3hal5LU64fEPdmiS1_mi(ptr noundef %16, i64 noundef %17, i32 noundef %18, ptr noundef %19, i64 noundef %20, i32 noundef %21)
          to label %23 unwind label %24

23:                                               ; preds = %6
  call void @_ZN2cv5utils5trace7details6RegionD2Ev(ptr noundef nonnull align 8 dereferenceable(12) %13) #14
  call void @llvm.lifetime.end.p0(i64 16, ptr %13) #14
  ret i32 %22

24:                                               ; preds = %6
  %25 = landingpad { ptr, i32 }
          cleanup
  %26 = extractvalue { ptr, i32 } %25, 0
  store ptr %26, ptr %14, align 8
  %27 = extractvalue { ptr, i32 } %25, 1
  store i32 %27, ptr %15, align 4
  call void @_ZN2cv5utils5trace7details6RegionD2Ev(ptr noundef nonnull align 8 dereferenceable(12) %13) #14
  call void @llvm.lifetime.end.p0(i64 16, ptr %13) #14
  br label %28

28:                                               ; preds = %24
  %29 = load ptr, ptr %14, align 8
  %30 = load i32, ptr %15, align 4
  %31 = insertvalue { ptr, i32 } poison, ptr %29, 0
  %32 = insertvalue { ptr, i32 } %31, i32 %30, 1
  resume { ptr, i32 } %32
}